target datalayout = "e-m:e-p270:32:32-p271:32:32-p272:64:64-i64:64-i128:128-f80:128-n8:16:32:64-S128"
target triple = "x86_64-pc-linux-gnu"

%struct.lhash_st = type { i64, ptr, i64, i32, ptr, ptr }
%struct.lhash_item_st = type { ptr, ptr, i32 }

; Function Attrs: nounwind uwtable
define internal ptr @get_next_ptr_and_hash(ptr noundef %0, ptr noundef %1, ptr noundef %2) #0 {
  %4 = alloca ptr, align 8
  %5 = alloca ptr, align 8
  %6 = alloca ptr, align 8
  %7 = alloca i32, align 4
  %8 = alloca ptr, align 8
  %9 = alloca ptr, align 8
  store ptr %0, ptr %4, align 8, !tbaa !10
  store ptr %1, ptr %5, align 8, !tbaa !36
  store ptr %2, ptr %6, align 8, !tbaa !6
  call void @llvm.lifetime.start.p0(i64 4, ptr %7) #6
  %10 = load ptr, ptr %4, align 8, !tbaa !10
  %11 = getelementptr inbounds nuw %struct.lhash_st, ptr %10, i32 0, i32 5
  %12 = load ptr, ptr %11, align 8, !tbaa !19
  %13 = load ptr, ptr %6, align 8, !tbaa !6
  %14 = call i32 %12(ptr noundef %13)
  store i32 %14, ptr %7, align 4, !tbaa !24
  call void @llvm.lifetime.start.p0(i64 8, ptr %8) #6
  call void @llvm.lifetime.start.p0(i64 8, ptr %9) #6
  %15 = load ptr, ptr %5, align 8, !tbaa !36
  %16 = icmp ne ptr %15, null
  br i1 %16, label %17, label %20

17:                                               ; preds = %3
  %18 = load i32, ptr %7, align 4, !tbaa !24
  %19 = load ptr, ptr %5, align 8, !tbaa !36
  store i32 %18, ptr %19, align 4, !tbaa !24
  br label %20

20:                                               ; preds = %17, %3
  %21 = load ptr, ptr %4, align 8, !tbaa !10
  %22 = getelementptr inbounds nuw %struct.lhash_st, ptr %21, i32 0, i32 1
  %23 = load ptr, ptr %22, align 8, !tbaa !17
  %24 = load i32, ptr %7, align 4, !tbaa !24
  %25 = zext i32 %24 to i64
  %26 = load ptr, ptr %4, align 8, !tbaa !10
  %27 = getelementptr inbounds nuw %struct.lhash_st, ptr %26, i32 0, i32 2
  %28 = load i64, ptr %27, align 8, !tbaa !12
  %29 = urem i64 %25, %28
  %30 = getelementptr inbounds nuw ptr, ptr %23, i64 %29
  store ptr %30, ptr %9, align 8, !tbaa !34
  %31 = load ptr, ptr %9, align 8, !tbaa !34
  %32 = load ptr, ptr %31, align 8, !tbaa !27
  store ptr %32, ptr %8, align 8, !tbaa !27
  br label %33

33:                                               ; preds = %50, %20
  %34 = load ptr, ptr %8, align 8, !tbaa !27
  %35 = icmp ne ptr %34, null
  br i1 %35, label %36, label %53

36:                                               ; preds = %33
  %37 = load ptr, ptr %4, align 8, !tbaa !10
  %38 = getelementptr inbounds nuw %struct.lhash_st, ptr %37, i32 0, i32 4
  %39 = load ptr, ptr %38, align 8, !tbaa !18
  %40 = load ptr, ptr %8, align 8, !tbaa !27
  %41 = getelementptr inbounds nuw %struct.lhash_item_st, ptr %40, i32 0, i32 0
  %42 = load ptr, ptr %41, align 8, !tbaa !35
  %43 = load ptr, ptr %6, align 8, !tbaa !6
  %44 = call i32 %39(ptr noundef %42, ptr noundef %43)
  %45 = icmp eq i32 %44, 0
  br i1 %45, label %46, label %47

46:                                               ; preds = %36
  br label %53

47:                                               ; preds = %36
  %48 = load ptr, ptr %8, align 8, !tbaa !27
  %49 = getelementptr inbounds nuw %struct.lhash_item_st, ptr %48, i32 0, i32 1
  store ptr %49, ptr %9, align 8, !tbaa !34
  br label %50

50:                                               ; preds = %47
  %51 = load ptr, ptr %9, align 8, !tbaa !34
  %52 = load ptr, ptr %51, align 8, !tbaa !27
  store ptr %52, ptr %8, align 8, !tbaa !27
  br label %33, !llvm.loop !38

53:                                               ; preds = %46, %33
  %54 = load ptr, ptr %9, align 8, !tbaa !34
  call void @llvm.lifetime.end.p0(i64 8, ptr %9) #6
  call void @llvm.lifetime.end.p0(i64 8, ptr %8) #6
  call void @llvm.lifetime.end.p0(i64 4, ptr %7) #6
  ret ptr %54
}

; Function Attrs: nounwind uwtable
define hidden ptr @lh_delete(ptr noundef %0, ptr noundef %1) #0 {
  %3 = alloca ptr, align 8
  %4 = alloca ptr, align 8
  %5 = alloca ptr, align 8
  %6 = alloca ptr, align 8
  %7 = alloca ptr, align 8
  %8 = alloca ptr, align 8
  %9 = alloca i32, align 4
  store ptr %0, ptr %4, align 8, !tbaa !10
  store ptr %1, ptr %5, align 8, !tbaa !6
  call void @llvm.lifetime.start.p0(i64 8, ptr %6) #6
  call void @llvm.lifetime.start.p0(i64 8, ptr %7) #6
  call void @llvm.lifetime.start.p0(i64 8, ptr %8) #6
  %10 = load ptr, ptr %4, align 8, !tbaa !10
  %11 = load ptr, ptr %5, align 8, !tbaa !6
  %12 = call ptr @get_next_ptr_and_hash(ptr noundef %10, ptr noundef null, ptr noundef %11)
  store ptr %12, ptr %6, align 8, !tbaa !34
  %13 = load ptr, ptr %6, align 8, !tbaa !34
  %14 = load ptr, ptr %13, align 8, !tbaa !27
  %15 = icmp eq ptr %14, null
  br i1 %15, label %16, label %17

16:                                               ; preds = %2
  store ptr null, ptr %3, align 8
  store i32 1, ptr %9, align 4
  br label %34

17:                                               ; preds = %2
  %18 = load ptr, ptr %6, align 8, !tbaa !34
  %19 = load ptr, ptr %18, align 8, !tbaa !27
  store ptr %19, ptr %7, align 8, !tbaa !27
  %20 = load ptr, ptr %7, align 8, !tbaa !27
  %21 = getelementptr inbounds nuw %struct.lhash_item_st, ptr %20, i32 0, i32 1
  %22 = load ptr, ptr %21, align 8, !tbaa !29
  %23 = load ptr, ptr %6, align 8, !tbaa !34
  store ptr %22, ptr %23, align 8, !tbaa !27
  %24 = load ptr, ptr %7, align 8, !tbaa !27
  %25 = getelementptr inbounds nuw %struct.lhash_item_st, ptr %24, i32 0, i32 0
  %26 = load ptr, ptr %25, align 8, !tbaa !35
  store ptr %26, ptr %8, align 8, !tbaa !27
  %27 = load ptr, ptr %7, align 8, !tbaa !27
  call void @free(ptr noundef %27) #6
  %28 = load ptr, ptr %4, align 8, !tbaa !10
  %29 = getelementptr inbounds nuw %struct.lhash_st, ptr %28, i32 0, i32 0
  %30 = load i64, ptr %29, align 8, !tbaa !33
  %31 = add i64 %30, -1
  store i64 %31, ptr %29, align 8, !tbaa !33
  %32 = load ptr, ptr %4, align 8, !tbaa !10
  call void @lh_maybe_resize(ptr noundef %32)
  %33 = load ptr, ptr %8, align 8, !tbaa !27
  store ptr %33, ptr %3, align 8
  store i32 1, ptr %9, align 4
  br label %34

34:                                               ; preds = %17, %16
  call void @llvm.lifetime.end.p0(i64 8, ptr %8) #6
  call void @llvm.lifetime.end.p0(i64 8, ptr %7) #6
  call void @llvm.lifetime.end.p0(i64 8, ptr %6) #6
  %35 = load ptr, ptr %3, align 8
  ret ptr %35
}