; Function Attrs: nounwind uwtable
define hidden ptr @lh_delete(ptr noundef captures(none) %0, ptr noundef %1) local_unnamed_addr #5 {
  %3 = getelementptr inbounds nuw i8, ptr %0, i64 40
  %4 = load ptr, ptr %3, align 8, !tbaa !16
  %5 = tail call i32 %4(ptr noundef %1) #9
  %6 = getelementptr inbounds nuw i8, ptr %0, i64 8
  %7 = load ptr, ptr %6, align 8, !tbaa !14
  %8 = zext i32 %5 to i64
  %9 = getelementptr inbounds nuw i8, ptr %0, i64 16
  %10 = load i64, ptr %9, align 8, !tbaa !6
  %11 = urem i64 %8, %10
  %12 = getelementptr inbounds nuw ptr, ptr %7, i64 %11
  %13 = getelementptr inbounds nuw i8, ptr %0, i64 32
  %.01518.i = load ptr, ptr %12, align 8, !tbaa !20
  %.not1719.i = icmp eq ptr %.01518.i, null
  br i1 %.not1719.i, label %get_next_ptr_and_hash.exit.thread, label %.lr.ph.i.preheader

.lr.ph.i.preheader:                               ; preds = %2
  %14 = load ptr, ptr %13, align 8, !tbaa !15
  %15 = load ptr, ptr %.01518.i, align 8, !tbaa !27
  %16 = tail call i32 %14(ptr noundef %15, ptr noundef %1) #9
  %17 = icmp eq i32 %16, 0
  br i1 %17, label %get_next_ptr_and_hash.exit, label %.lr.ph

.lr.ph:                                           ; preds = %.lr.ph.i.preheader, %.lr.ph.i
  %.01521.i15 = phi ptr [ %.015.i, %.lr.ph.i ], [ %.01518.i, %.lr.ph.i.preheader ]
  %18 = getelementptr inbounds nuw i8, ptr %.01521.i15, i64 8
  %.015.i = load ptr, ptr %18, align 8, !tbaa !20
  %.not17.i = icmp eq ptr %.015.i, null
  br i1 %.not17.i, label %get_next_ptr_and_hash.exit.thread, label %.lr.ph.i, !llvm.loop !28

.lr.ph.i:                                         ; preds = %.lr.ph
  %19 = load ptr, ptr %13, align 8, !tbaa !15
  %20 = load ptr, ptr %.015.i, align 8, !tbaa !27
  %21 = tail call i32 %19(ptr noundef %20, ptr noundef %1) #9
  %22 = icmp eq i32 %21, 0
  br i1 %22, label %get_next_ptr_and_hash.exit.loopexit, label %.lr.ph, !llvm.loop !28

get_next_ptr_and_hash.exit.loopexit:              ; preds = %.lr.ph.i
  %23 = getelementptr inbounds nuw i8, ptr %.01521.i15, i64 8
  br label %get_next_ptr_and_hash.exit

get_next_ptr_and_hash.exit:                       ; preds = %get_next_ptr_and_hash.exit.loopexit, %.lr.ph.i.preheader
  %.020.i.lcssa = phi ptr [ %12, %.lr.ph.i.preheader ], [ %23, %get_next_ptr_and_hash.exit.loopexit ]
  %.pr = load ptr, ptr %.020.i.lcssa, align 8, !tbaa !20
  %24 = icmp eq ptr %.pr, null
  br i1 %24, label %get_next_ptr_and_hash.exit.thread, label %25

25:                                               ; preds = %get_next_ptr_and_hash.exit
  %26 = getelementptr inbounds nuw i8, ptr %.pr, i64 8
  %27 = load ptr, ptr %26, align 8, !tbaa !22
  store ptr %27, ptr %.020.i.lcssa, align 8, !tbaa !20
  %28 = load ptr, ptr %.pr, align 8, !tbaa !27
  tail call void @free(ptr noundef nonnull %.pr) #9
  %29 = load i64, ptr %0, align 8, !tbaa !26
  %30 = add i64 %29, -1
  store i64 %30, ptr %0, align 8, !tbaa !26
  tail call fastcc void @lh_maybe_resize(ptr noundef nonnull %0)
  br label %get_next_ptr_and_hash.exit.thread

get_next_ptr_and_hash.exit.thread:                ; preds = %.lr.ph, %2, %get_next_ptr_and_hash.exit, %25
  %.0 = phi ptr [ %28, %25 ], [ null, %get_next_ptr_and_hash.exit ], [ null, %2 ], [ null, %.lr.ph ]
  ret ptr %.0
}